(lp0
(dp1
S'athlete_id'
p2
I1
sS'team_id'
p3
I1
sS'medal'
p4
S'4'
p5
sS'age'
p6
S'20'
p7
sS'athlete_name'
p8
S'Ivan'
p9
sa(dp10
S'team_id'
p11
I1
sS'medal'
p12
S'5'
p13
sS'age'
p14
S'20'
p15
sS'athlete_name'
p16
S'Kolya'
p17
sS'athlete_id'
p18
I2
sa(dp19
S'team_id'
p20
I2
sS'age'
p21
S'20'
p22
sS'medal'
p23
S'4'
p24
sS'athlete_id'
p25
I3
sS'athlete_name'
p26
S'TT'
p27
sa.